target datalayout = "e-m:e-p270:32:32-p271:32:32-p272:64:64-i64:64-i128:128-f80:128-n8:16:32:64-S128"
target triple = "x86_64-pc-linux-gnu"

%struct._header_field_info = type { ptr, ptr, i32, i32, ptr, i64, ptr, i32, i32, i32, i32, ptr }
%struct._proto_node = type { ptr, ptr, ptr, ptr, ptr, ptr, ptr }
%struct.tree_data_t = type { ptr, i8, i8, i32, ptr, i32, i32 }
%struct.field_info = type { ptr, i32, i32, i32, i32, i32, i32, ptr, ptr, ptr, i32, i32 }
%struct._packet_info = type { ptr, ptr, i32, i32, %struct.nstime_t, %struct.nstime_t, %struct.nstime_t, i8, ptr, ptr, ptr, ptr, %struct._address, %struct._address, %struct._address, %struct._address, %struct._address, %struct._address, i32, ptr, i8, [3 x i8], %struct.anon, i32, i32, i32, i32, ptr, i8, ptr, ptr, i16, i16, i32, i32, i16, i32, i32, ptr, ptr, ptr, i8, i8, i16, i16, i16, i32, i16, i16, ptr, ptr, ptr, ptr, ptr, i32, i32 }
%struct.nstime_t = type { i64, i32 }
%struct._address = type { i32, i32, ptr, ptr }
%struct.anon = type { i8, [3 x i8] }

@.str.1 = private unnamed_addr constant [13 x i8] c"epan/proto.c\00", align 1
@.str.3 = private unnamed_addr constant [34 x i8] c"%s:%u: failed assertion \22%s\22 (%s)\00", align 1
@.str.282 = private unnamed_addr constant [46 x i8] c"((tree)->tree_data)->start_idle_count < 50000\00", align 1

; Function Attrs: null_pointer_is_valid sspstrong uwtable
define internal ptr @new_field_info(ptr noundef %0, ptr noundef %1, ptr noundef %2, i32 noundef %3, i32 noundef %4) #0 {
  %6 = alloca ptr, align 8
  %7 = alloca ptr, align 8
  %8 = alloca ptr, align 8
  %9 = alloca i32, align 4
  %10 = alloca i32, align 4
  %11 = alloca ptr, align 8
  store ptr %0, ptr %6, align 8
  store ptr %1, ptr %7, align 8
  store ptr %2, ptr %8, align 8
  store i32 %3, ptr %9, align 4
  store i32 %4, ptr %10, align 4
  call void @llvm.lifetime.start.p0(i64 8, ptr %11) #24
  %12 = load ptr, ptr %6, align 8
  %13 = getelementptr inbounds nuw %struct._proto_node, ptr %12, i32 0, i32 6
  %14 = load ptr, ptr %13, align 8
  %15 = getelementptr inbounds nuw %struct.tree_data_t, ptr %14, i32 0, i32 4
  %16 = load ptr, ptr %15, align 8
  %17 = getelementptr inbounds nuw %struct._packet_info, ptr %16, i32 0, i32 51
  %18 = load ptr, ptr %17, align 8
  %19 = call noalias ptr @wmem_alloc(ptr noundef %18, i64 noundef 64) #30
  store ptr %19, ptr %11, align 8
  %20 = load ptr, ptr %7, align 8
  %21 = load ptr, ptr %11, align 8
  %22 = getelementptr inbounds nuw %struct.field_info, ptr %21, i32 0, i32 0
  store ptr %20, ptr %22, align 8
  %23 = load i32, ptr %9, align 4
  %24 = load ptr, ptr %11, align 8
  %25 = getelementptr inbounds nuw %struct.field_info, ptr %24, i32 0, i32 1
  store i32 %23, ptr %25, align 8
  %26 = load ptr, ptr %8, align 8
  %27 = icmp ne ptr %26, null
  br i1 %27, label %28, label %31

28:                                               ; preds = %5
  %29 = load ptr, ptr %8, align 8
  %30 = call i32 @tvb_raw_offset(ptr noundef %29)
  br label %32

31:                                               ; preds = %5
  br label %32

32:                                               ; preds = %31, %28
  %33 = phi i32 [ %30, %28 ], [ 0, %31 ]
  %34 = load ptr, ptr %11, align 8
  %35 = getelementptr inbounds nuw %struct.field_info, ptr %34, i32 0, i32 1
  %36 = load i32, ptr %35, align 8
  %37 = add i32 %36, %33
  store i32 %37, ptr %35, align 8
  %38 = load ptr, ptr %11, align 8
  %39 = getelementptr inbounds nuw %struct.field_info, ptr %38, i32 0, i32 1
  %40 = load i32, ptr %39, align 8
  %41 = icmp sgt i32 %40, 0
  br i1 %41, label %42, label %87

42:                                               ; preds = %32
  %43 = load ptr, ptr %11, align 8
  %44 = getelementptr inbounds nuw %struct.field_info, ptr %43, i32 0, i32 1
  %45 = load i32, ptr %44, align 8
  %46 = load ptr, ptr %6, align 8
  %47 = getelementptr inbounds nuw %struct._proto_node, ptr %46, i32 0, i32 6
  %48 = load ptr, ptr %47, align 8
  %49 = getelementptr inbounds nuw %struct.tree_data_t, ptr %48, i32 0, i32 5
  %50 = load i32, ptr %49, align 8
  %51 = icmp sle i32 %45, %50
  br i1 %51, label %52, label %74

52:                                               ; preds = %42
  %53 = load ptr, ptr %6, align 8
  %54 = getelementptr inbounds nuw %struct._proto_node, ptr %53, i32 0, i32 6
  %55 = load ptr, ptr %54, align 8
  %56 = getelementptr inbounds nuw %struct.tree_data_t, ptr %55, i32 0, i32 6
  %57 = load i32, ptr %56, align 4
  %58 = add i32 %57, 1
  store i32 %58, ptr %56, align 4
  %59 = load ptr, ptr %6, align 8
  %60 = getelementptr inbounds nuw %struct._proto_node, ptr %59, i32 0, i32 6
  %61 = load ptr, ptr %60, align 8
  %62 = getelementptr inbounds nuw %struct.tree_data_t, ptr %61, i32 0, i32 6
  %63 = load i32, ptr %62, align 4
  %64 = icmp ult i32 %63, 50000
  br i1 %64, label %65, label %66

65:                                               ; preds = %52
  br label %73

66:                                               ; preds = %52
  %67 = load ptr, ptr %11, align 8
  %68 = getelementptr inbounds nuw %struct.field_info, ptr %67, i32 0, i32 0
  %69 = load ptr, ptr %68, align 8
  %70 = getelementptr inbounds nuw %struct._header_field_info, ptr %69, i32 0, i32 1
  %71 = load ptr, ptr %70, align 8
  call void (ptr, ...) @proto_report_dissector_bug(ptr noundef @.str.3, ptr noundef @.str.1, i32 noundef 6844, ptr noundef @.str.282, ptr noundef %71) #27
  unreachable

72:                                               ; No predecessors!
  br label %73

73:                                               ; preds = %72, %65
  br label %86

74:                                               ; preds = %42
  %75 = load ptr, ptr %11, align 8
  %76 = getelementptr inbounds nuw %struct.field_info, ptr %75, i32 0, i32 1
  %77 = load i32, ptr %76, align 8
  %78 = load ptr, ptr %6, align 8
  %79 = getelementptr inbounds nuw %struct._proto_node, ptr %78, i32 0, i32 6
  %80 = load ptr, ptr %79, align 8
  %81 = getelementptr inbounds nuw %struct.tree_data_t, ptr %80, i32 0, i32 5
  store i32 %77, ptr %81, align 8
  %82 = load ptr, ptr %6, align 8
  %83 = getelementptr inbounds nuw %struct._proto_node, ptr %82, i32 0, i32 6
  %84 = load ptr, ptr %83, align 8
  %85 = getelementptr inbounds nuw %struct.tree_data_t, ptr %84, i32 0, i32 6
  store i32 0, ptr %85, align 4
  br label %86

86:                                               ; preds = %74, %73
  br label %87

87:                                               ; preds = %86, %32
  %88 = load i32, ptr %10, align 4
  %89 = load ptr, ptr %11, align 8
  %90 = getelementptr inbounds nuw %struct.field_info, ptr %89, i32 0, i32 2
  store i32 %88, ptr %90, align 4
  %91 = load ptr, ptr %11, align 8
  %92 = getelementptr inbounds nuw %struct.field_info, ptr %91, i32 0, i32 5
  store i32 -1, ptr %92, align 8
  %93 = load ptr, ptr %11, align 8
  %94 = getelementptr inbounds nuw %struct.field_info, ptr %93, i32 0, i32 6
  store i32 0, ptr %94, align 4
  %95 = load ptr, ptr %6, align 8
  %96 = getelementptr inbounds nuw %struct._proto_node, ptr %95, i32 0, i32 6
  %97 = load ptr, ptr %96, align 8
  %98 = getelementptr inbounds nuw %struct.tree_data_t, ptr %97, i32 0, i32 1
  %99 = load i8, ptr %98, align 8, !range !10, !noundef !11
  %100 = trunc i8 %99 to i1
  br i1 %100, label %133, label %101

101:                                              ; preds = %87
  %102 = load ptr, ptr %7, align 8
  %103 = getelementptr inbounds nuw %struct._header_field_info, ptr %102, i32 0, i32 9
  %104 = load i32, ptr %103, align 8
  %105 = icmp ne i32 %104, 3
  br i1 %105, label %106, label %132

106:                                              ; preds = %101
  %107 = load ptr, ptr %7, align 8
  %108 = getelementptr inbounds nuw %struct._header_field_info, ptr %107, i32 0, i32 2
  %109 = load i32, ptr %108, align 8
  %110 = icmp ne i32 %109, 1
  br i1 %110, label %118, label %111

111:                                              ; preds = %106
  %112 = load ptr, ptr %6, align 8
  %113 = getelementptr inbounds nuw %struct._proto_node, ptr %112, i32 0, i32 6
  %114 = load ptr, ptr %113, align 8
  %115 = getelementptr inbounds nuw %struct.tree_data_t, ptr %114, i32 0, i32 2
  %116 = load i8, ptr %115, align 1, !range !10, !noundef !11
  %117 = trunc i8 %116 to i1
  br i1 %117, label %118, label %132

118:                                              ; preds = %111, %106
  br label %119

119:                                              ; preds = %118
  %120 = load ptr, ptr %11, align 8
  %121 = icmp ne ptr %120, null
  br i1 %121, label %122, label %129

122:                                              ; preds = %119
  %123 = load ptr, ptr %11, align 8
  %124 = getelementptr inbounds nuw %struct.field_info, ptr %123, i32 0, i32 6
  %125 = load i32, ptr %124, align 4
  %126 = or i32 %125, 1
  %127 = load ptr, ptr %11, align 8
  %128 = getelementptr inbounds nuw %struct.field_info, ptr %127, i32 0, i32 6
  store i32 %126, ptr %128, align 4
  br label %129

129:                                              ; preds = %122, %119
  br label %130

130:                                              ; preds = %129
  br label %131

131:                                              ; preds = %130
  br label %132

132:                                              ; preds = %131, %111, %101
  br label %133

133:                                              ; preds = %132, %87
  %134 = load ptr, ptr %11, align 8
  %135 = getelementptr inbounds nuw %struct.field_info, ptr %134, i32 0, i32 0
  %136 = load ptr, ptr %135, align 8
  %137 = getelementptr inbounds nuw %struct._header_field_info, ptr %136, i32 0, i32 2
  %138 = load i32, ptr %137, align 8
  %139 = call ptr @fvalue_new(i32 noundef %138)
  %140 = load ptr, ptr %11, align 8
  %141 = getelementptr inbounds nuw %struct.field_info, ptr %140, i32 0, i32 9
  store ptr %139, ptr %141, align 8
  %142 = load ptr, ptr %11, align 8
  %143 = getelementptr inbounds nuw %struct.field_info, ptr %142, i32 0, i32 7
  store ptr null, ptr %143, align 8
  %144 = load ptr, ptr %8, align 8
  %145 = icmp ne ptr %144, null
  br i1 %145, label %146, label %149

146:                                              ; preds = %133
  %147 = load ptr, ptr %8, align 8
  %148 = call ptr @tvb_get_ds_tvb(ptr noundef %147)
  br label %150

149:                                              ; preds = %133
  br label %150

150:                                              ; preds = %149, %146
  %151 = phi ptr [ %148, %146 ], [ null, %149 ]
  %152 = load ptr, ptr %11, align 8
  %153 = getelementptr inbounds nuw %struct.field_info, ptr %152, i32 0, i32 8
  store ptr %151, ptr %153, align 8
  %154 = load ptr, ptr %11, align 8
  %155 = getelementptr inbounds nuw %struct.field_info, ptr %154, i32 0, i32 3
  store i32 0, ptr %155, align 8
  %156 = load ptr, ptr %11, align 8
  %157 = getelementptr inbounds nuw %struct.field_info, ptr %156, i32 0, i32 4
  store i32 0, ptr %157, align 4
  %158 = load ptr, ptr %6, align 8
  %159 = getelementptr inbounds nuw %struct._proto_node, ptr %158, i32 0, i32 6
  %160 = load ptr, ptr %159, align 8
  %161 = getelementptr inbounds nuw %struct.tree_data_t, ptr %160, i32 0, i32 4
  %162 = load ptr, ptr %161, align 8
  %163 = getelementptr inbounds nuw %struct._packet_info, ptr %162, i32 0, i32 41
  %164 = load i8, ptr %163, align 8
  %165 = zext i8 %164 to i32
  %166 = load ptr, ptr %11, align 8
  %167 = getelementptr inbounds nuw %struct.field_info, ptr %166, i32 0, i32 10
  store i32 %165, ptr %167, align 8
  %168 = load ptr, ptr %6, align 8
  %169 = getelementptr inbounds nuw %struct._proto_node, ptr %168, i32 0, i32 6
  %170 = load ptr, ptr %169, align 8
  %171 = getelementptr inbounds nuw %struct.tree_data_t, ptr %170, i32 0, i32 4
  %172 = load ptr, ptr %171, align 8
  %173 = getelementptr inbounds nuw %struct._packet_info, ptr %172, i32 0, i32 42
  %174 = load i8, ptr %173, align 1
  %175 = zext i8 %174 to i32
  %176 = load ptr, ptr %11, align 8
  %177 = getelementptr inbounds nuw %struct.field_info, ptr %176, i32 0, i32 11
  store i32 %175, ptr %177, align 4
  %178 = load ptr, ptr %11, align 8
  call void @llvm.lifetime.end.p0(i64 8, ptr %11) #24
  ret ptr %178
}