; Function Attrs: null_pointer_is_valid sspstrong uwtable
define internal fastcc noalias noundef ptr @new_field_info(ptr noundef readonly captures(none) %0, ptr noundef %1, ptr noundef %2, i32 noundef %3, i32 noundef %4) unnamed_addr #0 {
  %6 = getelementptr inbounds nuw i8, ptr %0, i64 48
  %7 = load ptr, ptr %6, align 8
  %8 = getelementptr inbounds nuw i8, ptr %7, i64 16
  %9 = load ptr, ptr %8, align 8
  %10 = getelementptr inbounds nuw i8, ptr %9, i64 408
  %11 = load ptr, ptr %10, align 8
  %12 = tail call noalias dereferenceable_or_null(64) ptr @wmem_alloc(ptr noundef %11, i64 noundef 64) #42
  store ptr %1, ptr %12, align 8
  %13 = getelementptr inbounds nuw i8, ptr %12, i64 8
  %.not = icmp eq ptr %2, null
  br i1 %.not, label %16, label %14

14:                                               ; preds = %5
  %15 = tail call i32 @tvb_raw_offset(ptr noundef nonnull %2)
  br label %16

16:                                               ; preds = %5, %14
  %17 = phi i32 [ %15, %14 ], [ 0, %5 ]
  %18 = add i32 %17, %3
  store i32 %18, ptr %13, align 8
  %19 = icmp sgt i32 %18, 0
  %.pre45 = load ptr, ptr %6, align 8
  br i1 %19, label %20, label %37

20:                                               ; preds = %16
  %21 = getelementptr inbounds nuw i8, ptr %.pre45, i64 24
  %22 = load i32, ptr %21, align 8
  %.not42 = icmp sgt i32 %18, %22
  br i1 %.not42, label %34, label %23

23:                                               ; preds = %20
  %24 = getelementptr inbounds nuw i8, ptr %.pre45, i64 28
  %25 = load i32, ptr %24, align 4
  %26 = add i32 %25, 1
  store i32 %26, ptr %24, align 4
  %27 = load ptr, ptr %6, align 8
  %28 = getelementptr inbounds nuw i8, ptr %27, i64 28
  %29 = load i32, ptr %28, align 4
  %30 = icmp ult i32 %29, 50000
  br i1 %30, label %37, label %31

31:                                               ; preds = %23
  %32 = getelementptr inbounds nuw i8, ptr %1, i64 8
  %33 = load ptr, ptr %32, align 8
  tail call void (ptr, ...) @proto_report_dissector_bug(ptr noundef nonnull @.str.3, ptr noundef nonnull @.str.1, i32 noundef 6844, ptr noundef nonnull @.str.282, ptr noundef %33) #37
  unreachable

34:                                               ; preds = %20
  store i32 %18, ptr %21, align 8
  %35 = load ptr, ptr %6, align 8
  %36 = getelementptr inbounds nuw i8, ptr %35, i64 28
  store i32 0, ptr %36, align 4
  %.pre = load ptr, ptr %6, align 8
  br label %37

37:                                               ; preds = %34, %23, %16
  %38 = phi ptr [ %.pre, %34 ], [ %27, %23 ], [ %.pre45, %16 ]
  %39 = getelementptr inbounds nuw i8, ptr %12, i64 12
  store i32 %4, ptr %39, align 4
  %40 = getelementptr inbounds nuw i8, ptr %12, i64 24
  store i32 -1, ptr %40, align 8
  %41 = getelementptr inbounds nuw i8, ptr %12, i64 28
  store i32 0, ptr %41, align 4
  %42 = getelementptr inbounds nuw i8, ptr %38, i64 8
  %43 = load i8, ptr %42, align 8, !range !10, !noundef !11
  %44 = trunc nuw i8 %43 to i1
  br i1 %44, label %58, label %45

45:                                               ; preds = %37
  %46 = getelementptr inbounds nuw i8, ptr %1, i64 56
  %47 = load i32, ptr %46, align 8
  %.not43 = icmp eq i32 %47, 3
  br i1 %.not43, label %58, label %48

48:                                               ; preds = %45
  %49 = getelementptr inbounds nuw i8, ptr %1, i64 16
  %50 = load i32, ptr %49, align 8
  %.not44 = icmp eq i32 %50, 1
  br i1 %.not44, label %51, label %56

51:                                               ; preds = %48
  %52 = getelementptr inbounds nuw i8, ptr %38, i64 9
  %53 = load i8, ptr %52, align 1, !range !10, !noundef !11
  %54 = trunc nuw i8 %53 to i1
  %55 = icmp ne ptr %12, null
  %or.cond = and i1 %55, %54
  br i1 %or.cond, label %57, label %58

56:                                               ; preds = %48
  %.old1.not = icmp eq ptr %12, null
  br i1 %.old1.not, label %58, label %57

57:                                               ; preds = %51, %56
  store i32 1, ptr %41, align 4
  br label %58

58:                                               ; preds = %45, %51, %57, %56, %37
  %59 = getelementptr inbounds nuw i8, ptr %1, i64 16
  %60 = load i32, ptr %59, align 8
  %61 = tail call ptr @fvalue_new(i32 noundef %60)
  %62 = getelementptr inbounds nuw i8, ptr %12, i64 48
  store ptr %61, ptr %62, align 8
  %63 = getelementptr inbounds nuw i8, ptr %12, i64 32
  store ptr null, ptr %63, align 8
  br i1 %.not, label %66, label %64

64:                                               ; preds = %58
  %65 = tail call ptr @tvb_get_ds_tvb(ptr noundef nonnull %2)
  br label %66

66:                                               ; preds = %58, %64
  %67 = phi ptr [ %65, %64 ], [ null, %58 ]
  %68 = getelementptr inbounds nuw i8, ptr %12, i64 40
  store ptr %67, ptr %68, align 8
  %69 = getelementptr inbounds nuw i8, ptr %12, i64 16
  store i32 0, ptr %69, align 8
  %70 = getelementptr inbounds nuw i8, ptr %12, i64 20
  store i32 0, ptr %70, align 4
  %71 = load ptr, ptr %6, align 8
  %72 = getelementptr inbounds nuw i8, ptr %71, i64 16
  %73 = load ptr, ptr %72, align 8
  %74 = getelementptr inbounds nuw i8, ptr %73, i64 376
  %75 = load i8, ptr %74, align 8
  %76 = zext i8 %75 to i32
  %77 = getelementptr inbounds nuw i8, ptr %12, i64 56
  store i32 %76, ptr %77, align 8
  %78 = getelementptr inbounds nuw i8, ptr %73, i64 377
  %79 = load i8, ptr %78, align 1
  %80 = zext i8 %79 to i32
  %81 = getelementptr inbounds nuw i8, ptr %12, i64 60
  store i32 %80, ptr %81, align 4
  ret ptr %12
}